; Function Attrs: mustprogress nofree nosync nounwind memory(readwrite, inaccessiblemem: none) uwtable
define dso_local void @_Z13eval_jacobianPKdS0_PPd(ptr nocapture noundef readonly %coeffs, ptr nocapture noundef readonly %rgb, ptr nocapture noundef readonly %jac) local_unnamed_addr #12 {
entry:
  %out.i11 = alloca [3 x double], align 16
  %out.i = alloca [3 x double], align 16
  %r0 = alloca [3 x double], align 16
  %r1 = alloca [3 x double], align 16
  %tmp = alloca [3 x double], align 16
  br label %for.body

for.body:                                         ; preds = %entry, %for.inc20
  %indvars.iv55 = phi i64 [ 0, %entry ], [ %indvars.iv.next56, %for.inc20 ]
  call void @llvm.memcpy.p0.p0.i64(ptr noundef nonnull align 16 dereferenceable(24) %tmp, ptr noundef nonnull align 8 dereferenceable(24) %coeffs, i64 24, i1 false)
  %arrayidx = getelementptr inbounds [3 x double], ptr %tmp, i64 0, i64 %indvars.iv55
  %0 = load double, ptr %arrayidx, align 8
  %sub = fadd double %0, -1.000000e-04
  store double %sub, ptr %arrayidx, align 8
  call void @llvm.lifetime.start.p0(i64 24, ptr nonnull %out.i)
  call void @llvm.memset.p0.i64(ptr noundef nonnull align 16 dereferenceable(24) %out.i, i8 0, i64 24, i1 false)
  br label %for.body.i

for.body.i:                                       ; preds = %for.inc21.i, %for.body
  %indvars.iv25.i = phi i64 [ 0, %for.body ], [ %indvars.iv.next26.i, %for.inc21.i ]
  %arrayidx.i = getelementptr inbounds [283 x double], ptr @lambda_tbl, i64 0, i64 %indvars.iv25.i
  %1 = load double, ptr %arrayidx.i, align 8
  %sub.i = fadd double %1, -3.600000e+02
  %div.i = fdiv double %sub.i, 4.700000e+02
  br label %for.body4.i

for.body4.i:                                      ; preds = %for.body4.i, %for.body.i
  %indvars.iv.i = phi i64 [ 0, %for.body.i ], [ %indvars.iv.next.i, %for.body4.i ]
  %x.015.i = phi double [ 0.000000e+00, %for.body.i ], [ %add.i, %for.body4.i ]
  %mul.i = fmul double %div.i, %x.015.i
  %arrayidx6.i = getelementptr inbounds double, ptr %tmp, i64 %indvars.iv.i
  %2 = load double, ptr %arrayidx6.i, align 8
  %add.i = fadd double %mul.i, %2
  %indvars.iv.next.i = add nuw nsw i64 %indvars.iv.i, 1
  %exitcond.not.i = icmp eq i64 %indvars.iv.next.i, 3
  br i1 %exitcond.not.i, label %for.end.i, label %for.body4.i, !llvm.loop !20

for.end.i:                                        ; preds = %for.body4.i
  %mul.i.i = fmul double %add.i, 5.000000e-01
  %mul1.i.i = fmul double %add.i, %add.i
  %add.i.i = fadd double %mul1.i.i, 1.000000e+00
  %sqrt.i.i = tail call double @llvm.sqrt.f64(double %add.i.i)
  %div.i.i = fdiv double %mul.i.i, %sqrt.i.i
  %add2.i.i = fadd double %div.i.i, 5.000000e-01
  br label %for.body9.i

for.body9.i:                                      ; preds = %for.body9.i, %for.end.i
  %indvars.iv21.i = phi i64 [ 0, %for.end.i ], [ %indvars.iv.next22.i, %for.body9.i ]
  %arrayidx13.i = getelementptr inbounds [3 x [283 x double]], ptr @rgb_tbl, i64 0, i64 %indvars.iv21.i, i64 %indvars.iv25.i
  %3 = load double, ptr %arrayidx13.i, align 8
  %mul14.i = fmul double %add2.i.i, %3
  %arrayidx16.i = getelementptr inbounds [3 x double], ptr %out.i, i64 0, i64 %indvars.iv21.i
  %4 = load double, ptr %arrayidx16.i, align 8
  %add17.i = fadd double %4, %mul14.i
  store double %add17.i, ptr %arrayidx16.i, align 8
  %indvars.iv.next22.i = add nuw nsw i64 %indvars.iv21.i, 1
  %exitcond24.not.i = icmp eq i64 %indvars.iv.next22.i, 3
  br i1 %exitcond24.not.i, label %for.inc21.i, label %for.body9.i, !llvm.loop !21

for.inc21.i:                                      ; preds = %for.body9.i
  %indvars.iv.next26.i = add nuw nsw i64 %indvars.iv25.i, 1
  %exitcond28.not.i = icmp eq i64 %indvars.iv.next26.i, 283
  br i1 %exitcond28.not.i, label %for.end23.i, label %for.body.i, !llvm.loop !22

for.end23.i:                                      ; preds = %for.inc21.i
  call void @_Z7cie_labPd(ptr noundef nonnull %out.i)
  call void @llvm.memcpy.p0.p0.i64(ptr noundef nonnull align 16 dereferenceable(24) %r0, ptr noundef nonnull align 8 dereferenceable(24) %rgb, i64 24, i1 false)
  call void @_Z7cie_labPd(ptr noundef nonnull %r0)
  br label %for.body27.i

for.body27.i:                                     ; preds = %for.body27.i, %for.end23.i
  %indvars.iv29.i = phi i64 [ 0, %for.end23.i ], [ %indvars.iv.next30.i, %for.body27.i ]
  %arrayidx29.i = getelementptr inbounds [3 x double], ptr %out.i, i64 0, i64 %indvars.iv29.i
  %5 = load double, ptr %arrayidx29.i, align 8
  %arrayidx31.i = getelementptr inbounds double, ptr %r0, i64 %indvars.iv29.i
  %6 = load double, ptr %arrayidx31.i, align 8
  %sub32.i = fsub double %6, %5
  store double %sub32.i, ptr %arrayidx31.i, align 8
  %indvars.iv.next30.i = add nuw nsw i64 %indvars.iv29.i, 1
  %exitcond32.not.i = icmp eq i64 %indvars.iv.next30.i, 3
  br i1 %exitcond32.not.i, label %_Z13eval_residualPKdS0_Pd.exit, label %for.body27.i, !llvm.loop !23

_Z13eval_residualPKdS0_Pd.exit:                   ; preds = %for.body27.i
  call void @llvm.lifetime.end.p0(i64 24, ptr nonnull %out.i)
  call void @llvm.memcpy.p0.p0.i64(ptr noundef nonnull align 16 dereferenceable(24) %tmp, ptr noundef nonnull align 8 dereferenceable(24) %coeffs, i64 24, i1 false)
  %7 = load double, ptr %arrayidx, align 8
  %add = fadd double %7, 1.000000e-04
  store double %add, ptr %arrayidx, align 8
  call void @llvm.lifetime.start.p0(i64 24, ptr nonnull %out.i11)
  call void @llvm.memset.p0.i64(ptr noundef nonnull align 16 dereferenceable(24) %out.i11, i8 0, i64 24, i1 false)
  br label %for.body.i12

for.body.i12:                                     ; preds = %for.inc21.i40, %_Z13eval_residualPKdS0_Pd.exit
  %indvars.iv25.i13 = phi i64 [ 0, %_Z13eval_residualPKdS0_Pd.exit ], [ %indvars.iv.next26.i41, %for.inc21.i40 ]
  %arrayidx.i14 = getelementptr inbounds [283 x double], ptr @lambda_tbl, i64 0, i64 %indvars.iv25.i13
  %8 = load double, ptr %arrayidx.i14, align 8
  %sub.i15 = fadd double %8, -3.600000e+02
  %div.i16 = fdiv double %sub.i15, 4.700000e+02
  br label %for.body4.i17

for.body4.i17:                                    ; preds = %for.body4.i17, %for.body.i12
  %indvars.iv.i18 = phi i64 [ 0, %for.body.i12 ], [ %indvars.iv.next.i23, %for.body4.i17 ]
  %x.015.i19 = phi double [ 0.000000e+00, %for.body.i12 ], [ %add.i22, %for.body4.i17 ]
  %mul.i20 = fmul double %div.i16, %x.015.i19
  %arrayidx6.i21 = getelementptr inbounds double, ptr %tmp, i64 %indvars.iv.i18
  %9 = load double, ptr %arrayidx6.i21, align 8
  %add.i22 = fadd double %mul.i20, %9
  %indvars.iv.next.i23 = add nuw nsw i64 %indvars.iv.i18, 1
  %exitcond.not.i24 = icmp eq i64 %indvars.iv.next.i23, 3
  br i1 %exitcond.not.i24, label %for.end.i25, label %for.body4.i17, !llvm.loop !20

for.end.i25:                                      ; preds = %for.body4.i17
  %mul.i.i26 = fmul double %add.i22, 5.000000e-01
  %mul1.i.i27 = fmul double %add.i22, %add.i22
  %add.i.i28 = fadd double %mul1.i.i27, 1.000000e+00
  %sqrt.i.i29 = tail call double @llvm.sqrt.f64(double %add.i.i28)
  %div.i.i30 = fdiv double %mul.i.i26, %sqrt.i.i29
  %add2.i.i31 = fadd double %div.i.i30, 5.000000e-01
  br label %for.body9.i32

for.body9.i32:                                    ; preds = %for.body9.i32, %for.end.i25
  %indvars.iv21.i33 = phi i64 [ 0, %for.end.i25 ], [ %indvars.iv.next22.i38, %for.body9.i32 ]
  %arrayidx13.i34 = getelementptr inbounds [3 x [283 x double]], ptr @rgb_tbl, i64 0, i64 %indvars.iv21.i33, i64 %indvars.iv25.i13
  %10 = load double, ptr %arrayidx13.i34, align 8
  %mul14.i35 = fmul double %add2.i.i31, %10
  %arrayidx16.i36 = getelementptr inbounds [3 x double], ptr %out.i11, i64 0, i64 %indvars.iv21.i33
  %11 = load double, ptr %arrayidx16.i36, align 8
  %add17.i37 = fadd double %11, %mul14.i35
  store double %add17.i37, ptr %arrayidx16.i36, align 8
  %indvars.iv.next22.i38 = add nuw nsw i64 %indvars.iv21.i33, 1
  %exitcond24.not.i39 = icmp eq i64 %indvars.iv.next22.i38, 3
  br i1 %exitcond24.not.i39, label %for.inc21.i40, label %for.body9.i32, !llvm.loop !21

for.inc21.i40:                                    ; preds = %for.body9.i32
  %indvars.iv.next26.i41 = add nuw nsw i64 %indvars.iv25.i13, 1
  %exitcond28.not.i42 = icmp eq i64 %indvars.iv.next26.i41, 283
  br i1 %exitcond28.not.i42, label %for.end23.i43, label %for.body.i12, !llvm.loop !22

for.end23.i43:                                    ; preds = %for.inc21.i40
  call void @_Z7cie_labPd(ptr noundef nonnull %out.i11)
  call void @llvm.memcpy.p0.p0.i64(ptr noundef nonnull align 16 dereferenceable(24) %r1, ptr noundef nonnull align 8 dereferenceable(24) %rgb, i64 24, i1 false)
  call void @_Z7cie_labPd(ptr noundef nonnull %r1)
  br label %for.body27.i44

for.body27.i44:                                   ; preds = %for.body27.i44, %for.end23.i43
  %indvars.iv29.i45 = phi i64 [ 0, %for.end23.i43 ], [ %indvars.iv.next30.i49, %for.body27.i44 ]
  %arrayidx29.i46 = getelementptr inbounds [3 x double], ptr %out.i11, i64 0, i64 %indvars.iv29.i45
  %12 = load double, ptr %arrayidx29.i46, align 8
  %arrayidx31.i47 = getelementptr inbounds double, ptr %r1, i64 %indvars.iv29.i45
  %13 = load double, ptr %arrayidx31.i47, align 8
  %sub32.i48 = fsub double %13, %12
  store double %sub32.i48, ptr %arrayidx31.i47, align 8
  %indvars.iv.next30.i49 = add nuw nsw i64 %indvars.iv29.i45, 1
  %exitcond32.not.i50 = icmp eq i64 %indvars.iv.next30.i49, 3
  br i1 %exitcond32.not.i50, label %_Z13eval_residualPKdS0_Pd.exit51, label %for.body27.i44, !llvm.loop !23

_Z13eval_residualPKdS0_Pd.exit51:                 ; preds = %for.body27.i44
  call void @llvm.lifetime.end.p0(i64 24, ptr nonnull %out.i11)
  br label %for.body10

for.body10:                                       ; preds = %_Z13eval_residualPKdS0_Pd.exit51, %for.body10
  %indvars.iv = phi i64 [ 0, %_Z13eval_residualPKdS0_Pd.exit51 ], [ %indvars.iv.next, %for.body10 ]
  %arrayidx12 = getelementptr inbounds [3 x double], ptr %r1, i64 0, i64 %indvars.iv
  %14 = load double, ptr %arrayidx12, align 8
  %arrayidx14 = getelementptr inbounds [3 x double], ptr %r0, i64 0, i64 %indvars.iv
  %15 = load double, ptr %arrayidx14, align 8
  %sub15 = fsub double %14, %15
  %div = fdiv double %sub15, 2.000000e-04
  %arrayidx17 = getelementptr inbounds ptr, ptr %jac, i64 %indvars.iv
  %16 = load ptr, ptr %arrayidx17, align 8
  %arrayidx19 = getelementptr inbounds double, ptr %16, i64 %indvars.iv55
  store double %div, ptr %arrayidx19, align 8
  %indvars.iv.next = add nuw nsw i64 %indvars.iv, 1
  %exitcond.not = icmp eq i64 %indvars.iv.next, 3
  br i1 %exitcond.not, label %for.inc20, label %for.body10, !llvm.loop !24

for.inc20:                                        ; preds = %for.body10
  %indvars.iv.next56 = add nuw nsw i64 %indvars.iv55, 1
  %exitcond58.not = icmp eq i64 %indvars.iv.next56, 3
  br i1 %exitcond58.not, label %for.end22, label %for.body, !llvm.loop !25

for.end22:                                        ; preds = %for.inc20
  ret void
}